(lp0
(S'cppflags'
p1
ccopy_reg
_reconstructor
p2
(cino.utils
SpaceList
p3
c__builtin__
list
p4
(lp5
S'-mmcu=atmega32u4'
p6
aS'-DF_CPU=16000000L'
p7
aS'-DARDUINO=101'
p8
aS'-I/usr/share/arduino/hardware/arduino/cores/arduino'
p9
aS'-ffunction-sections'
p10
aS'-fdata-sections'
p11
aS'-g'
p12
aS'-Os'
p13
aS'-w'
p14
aS'-DUSB_VID=0x2341'
p15
aS'-DUSB_PID=0x8036'
p16
aS'-I/usr/share/arduino/hardware/arduino/variants/leonardo'
p17
aS'-I/usr/share/arduino/hardware/arduino/cores/arduino'
p18
atp19
Rp20
tp21
a(S'cxx'
p22
S'/usr/bin/avr-g++'
p23
tp24
a(S'build_dir'
p25
S'.build/leonardo'
p26
tp27
a(S'avrdude'
p28
S'/usr/share/arduino/hardware/tools/avrdude'
p29
tp30
a(S'ar'
p31
S'/usr/bin/avr-ar'
p32
tp33
a(S'names'
p34
(dp35
S'cpp'
p36
S'%s.cpp'
p37
sS'obj'
p38
S'%s.o'
p39
sS'lib'
p40
S'lib%s.a'
p41
sS'deps'
p42
S'%s.d'
p43
stp44
a(S'ldflags'
p45
g2
(g3
g4
(lp46
g6
aS'-Wl,-Os'
p47
aS'-Wl,--gc-sections'
p48
atp49
Rp50
tp51
a(S'arduino_lib_version'
p52
g2
(cino.environment
Version
p53
c__builtin__
tuple
p54
(I1
I0
I1
tp55
tp56
Rp57
tp58
a(S'objcopy'
p59
S'/usr/bin/avr-objcopy'
p60
tp61
a(S'board_models'
p62
cino.environment
BoardModels
p63
((lp64
(lp65
S'uno'
p66
a(dp67
S'bootloader'
p68
(dp69
S'extended_fuses'
p70
S'0x05'
p71
sS'high_fuses'
p72
S'0xde'
p73
sS'low_fuses'
p74
S'0xff'
p75
sS'lock_bits'
p76
S'0x0F'
p77
sS'file'
p78
S'optiboot_atmega328.hex'
p79
sS'path'
p80
S'optiboot'
p81
sS'unlock_bits'
p82
S'0x3F'
p83
ssS'build'
p84
(dp85
S'core'
p86
S'arduino'
p87
sS'mcu'
p88
S'atmega328p'
p89
sS'f_cpu'
p90
S'16000000L'
p91
sS'variant'
p92
S'standard'
p93
ssS'name'
p94
S'Arduino Uno'
p95
sS'upload'
p96
(dp97
S'speed'
p98
S'115200'
p99
sS'maximum_size'
p100
S'32256'
p101
sS'protocol'
p102
S'arduino'
p103
ssaa(lp104
S'atmega328'
p105
a(dp106
S'bootloader'
p107
(dp108
S'extended_fuses'
p109
S'0x05'
p110
sS'high_fuses'
p111
S'0xDA'
p112
sS'low_fuses'
p113
S'0xFF'
p114
sS'lock_bits'
p115
S'0x0F'
p116
sS'file'
p117
S'ATmegaBOOT_168_atmega328.hex'
p118
sS'path'
p119
S'atmega'
p120
sS'unlock_bits'
p121
S'0x3F'
p122
ssS'build'
p123
(dp124
S'core'
p125
S'arduino'
p126
sS'mcu'
p127
S'atmega328p'
p128
sS'f_cpu'
p129
S'16000000L'
p130
sS'variant'
p131
S'standard'
p132
ssS'name'
p133
S'Arduino Duemilanove w/ ATmega328'
p134
sS'upload'
p135
(dp136
S'speed'
p137
S'57600'
p138
sS'maximum_size'
p139
S'30720'
p140
sS'protocol'
p141
S'arduino'
p142
ssaa(lp143
S'diecimila'
p144
a(dp145
S'bootloader'
p146
(dp147
S'extended_fuses'
p148
S'0x00'
p149
sS'high_fuses'
p150
S'0xdd'
p151
sS'low_fuses'
p152
S'0xff'
p153
sS'lock_bits'
p154
S'0x0F'
p155
sS'file'
p156
S'ATmegaBOOT_168_diecimila.hex'
p157
sS'path'
p158
S'atmega'
p159
sS'unlock_bits'
p160
S'0x3F'
p161
ssS'build'
p162
(dp163
S'core'
p164
S'arduino'
p165
sS'mcu'
p166
S'atmega168'
p167
sS'f_cpu'
p168
S'16000000L'
p169
sS'variant'
p170
S'standard'
p171
ssS'name'
p172
S'Arduino Diecimila or Duemilanove w/ ATmega168'
p173
sS'upload'
p174
(dp175
S'speed'
p176
S'19200'
p177
sS'maximum_size'
p178
S'14336'
p179
sS'protocol'
p180
S'arduino'
p181
ssaa(lp182
S'nano328'
p183
a(dp184
S'bootloader'
p185
(dp186
S'extended_fuses'
p187
S'0x05'
p188
sS'high_fuses'
p189
S'0xDA'
p190
sS'low_fuses'
p191
S'0xFF'
p192
sS'lock_bits'
p193
S'0x0F'
p194
sS'file'
p195
S'ATmegaBOOT_168_atmega328.hex'
p196
sS'path'
p197
S'atmega'
p198
sS'unlock_bits'
p199
S'0x3F'
p200
ssS'build'
p201
(dp202
S'core'
p203
S'arduino'
p204
sS'mcu'
p205
S'atmega328p'
p206
sS'f_cpu'
p207
S'16000000L'
p208
sS'variant'
p209
S'eightanaloginputs'
p210
ssS'name'
p211
S'Arduino Nano w/ ATmega328'
p212
sS'upload'
p213
(dp214
S'speed'
p215
S'57600'
p216
sS'maximum_size'
p217
S'30720'
p218
sS'protocol'
p219
S'arduino'
p220
ssaa(lp221
S'nano'
p222
a(dp223
S'bootloader'
p224
(dp225
S'extended_fuses'
p226
S'0x00'
p227
sS'high_fuses'
p228
S'0xdd'
p229
sS'low_fuses'
p230
S'0xff'
p231
sS'lock_bits'
p232
S'0x0F'
p233
sS'file'
p234
S'ATmegaBOOT_168_diecimila.hex'
p235
sS'path'
p236
S'atmega'
p237
sS'unlock_bits'
p238
S'0x3F'
p239
ssS'build'
p240
(dp241
S'core'
p242
S'arduino'
p243
sS'mcu'
p244
S'atmega168'
p245
sS'f_cpu'
p246
S'16000000L'
p247
sS'variant'
p248
S'eightanaloginputs'
p249
ssS'name'
p250
S'Arduino Nano w/ ATmega168'
p251
sS'upload'
p252
(dp253
S'speed'
p254
S'19200'
p255
sS'maximum_size'
p256
S'14336'
p257
sS'protocol'
p258
S'arduino'
p259
ssaa(lp260
S'mega2560'
p261
a(dp262
S'bootloader'
p263
(dp264
S'extended_fuses'
p265
S'0xFD'
p266
sS'high_fuses'
p267
S'0xD8'
p268
sS'low_fuses'
p269
S'0xFF'
p270
sS'lock_bits'
p271
S'0x0F'
p272
sS'file'
p273
S'stk500boot_v2_mega2560.hex'
p274
sS'path'
p275
S'stk500v2'
p276
sS'unlock_bits'
p277
S'0x3F'
p278
ssS'build'
p279
(dp280
S'core'
p281
S'arduino'
p282
sS'mcu'
p283
S'atmega2560'
p284
sS'f_cpu'
p285
S'16000000L'
p286
sS'variant'
p287
S'mega'
p288
ssS'name'
p289
S'Arduino Mega 2560 or Mega ADK'
p290
sS'upload'
p291
(dp292
S'speed'
p293
S'115200'
p294
sS'maximum_size'
p295
S'258048'
p296
sS'protocol'
p297
S'stk500v2'
p298
ssaa(lp299
S'mega'
p300
a(dp301
S'bootloader'
p302
(dp303
S'extended_fuses'
p304
S'0xF5'
p305
sS'high_fuses'
p306
S'0xDA'
p307
sS'low_fuses'
p308
S'0xFF'
p309
sS'lock_bits'
p310
S'0x0F'
p311
sS'file'
p312
S'ATmegaBOOT_168_atmega1280.hex'
p313
sS'path'
p314
S'atmega'
p315
sS'unlock_bits'
p316
S'0x3F'
p317
ssS'build'
p318
(dp319
S'core'
p320
S'arduino'
p321
sS'mcu'
p322
S'atmega1280'
p323
sS'f_cpu'
p324
S'16000000L'
p325
sS'variant'
p326
S'mega'
p327
ssS'name'
p328
S'Arduino Mega (ATmega1280)'
p329
sS'upload'
p330
(dp331
S'speed'
p332
S'57600'
p333
sS'maximum_size'
p334
S'126976'
p335
sS'protocol'
p336
S'arduino'
p337
ssaa(lp338
S'leonardo'
p339
a(dp340
S'bootloader'
p341
(dp342
S'extended_fuses'
p343
S'0xcb'
p344
sS'high_fuses'
p345
S'0xd8'
p346
sS'low_fuses'
p347
S'0xff'
p348
sS'lock_bits'
p349
S'0x2F'
p350
sS'file'
p351
S'Caterina-Leonardo.hex'
p352
sS'path'
p353
S'caterina'
p354
sS'unlock_bits'
p355
S'0x3F'
p356
ssS'build'
p357
(dp358
S'core'
p359
S'arduino'
p360
sS'f_cpu'
p361
S'16000000L'
p362
sS'vid'
p363
S'0x2341'
p364
sS'pid'
p365
S'0x8036'
p366
sS'variant'
p367
S'leonardo'
p368
sS'mcu'
p369
S'atmega32u4'
p370
ssS'name'
p371
S'Arduino Leonardo'
p372
sS'upload'
p373
(dp374
S'speed'
p375
S'57600'
p376
sS'maximum_size'
p377
S'28672'
p378
sS'protocol'
p379
S'avr109'
p380
sS'disable_flushing'
p381
S'true'
p382
ssaa(lp383
S'mini328'
p384
a(dp385
S'bootloader'
p386
(dp387
S'extended_fuses'
p388
S'0x05'
p389
sS'high_fuses'
p390
S'0xd8'
p391
sS'low_fuses'
p392
S'0xff'
p393
sS'lock_bits'
p394
S'0x0F'
p395
sS'file'
p396
S'optiboot_atmega328-Mini.hex'
p397
sS'path'
p398
S'optiboot'
p399
sS'unlock_bits'
p400
S'0x3F'
p401
ssS'build'
p402
(dp403
S'core'
p404
S'arduino'
p405
sS'mcu'
p406
S'atmega328p'
p407
sS'f_cpu'
p408
S'16000000L'
p409
sS'variant'
p410
S'eightanaloginputs'
p411
ssS'name'
p412
S'Arduino Mini w/ ATmega328'
p413
sS'upload'
p414
(dp415
S'speed'
p416
S'115200'
p417
sS'maximum_size'
p418
S'28672'
p419
sS'protocol'
p420
S'arduino'
p421
ssaa(lp422
S'mini'
p423
a(dp424
S'bootloader'
p425
(dp426
S'extended_fuses'
p427
S'0x00'
p428
sS'high_fuses'
p429
S'0xdd'
p430
sS'low_fuses'
p431
S'0xff'
p432
sS'lock_bits'
p433
S'0x0F'
p434
sS'file'
p435
S'ATmegaBOOT_168_ng.hex'
p436
sS'path'
p437
S'atmega'
p438
sS'unlock_bits'
p439
S'0x3F'
p440
ssS'build'
p441
(dp442
S'core'
p443
S'arduino'
p444
sS'mcu'
p445
S'atmega168'
p446
sS'f_cpu'
p447
S'16000000L'
p448
sS'variant'
p449
S'eightanaloginputs'
p450
ssS'name'
p451
S'Arduino Mini w/ ATmega168'
p452
sS'upload'
p453
(dp454
S'speed'
p455
S'19200'
p456
sS'maximum_size'
p457
S'14336'
p458
sS'protocol'
p459
S'arduino'
p460
ssaa(lp461
S'ethernet'
p462
a(dp463
S'bootloader'
p464
(dp465
S'extended_fuses'
p466
S'0x05'
p467
sS'high_fuses'
p468
S'0xde'
p469
sS'low_fuses'
p470
S'0xff'
p471
sS'lock_bits'
p472
S'0x0F'
p473
sS'file'
p474
S'optiboot_atmega328.hex'
p475
sS'path'
p476
S'optiboot'
p477
sS'unlock_bits'
p478
S'0x3F'
p479
ssS'build'
p480
(dp481
S'f_cpu'
p482
S'16000000L'
p483
sS'mcu'
p484
S'atmega328p'
p485
sS'variant'
p486
S'standard'
p487
sS'core'
p488
S'arduino'
p489
ssS'name'
p490
S'Arduino Ethernet'
p491
sS'upload'
p492
(dp493
S'speed'
p494
S'115200'
p495
sS'maximum_size'
p496
S'32256'
p497
sS'protocol'
p498
S'arduino'
p499
ssaa(lp500
S'fio'
p501
a(dp502
S'bootloader'
p503
(dp504
S'extended_fuses'
p505
S'0x05'
p506
sS'high_fuses'
p507
S'0xDA'
p508
sS'low_fuses'
p509
S'0xFF'
p510
sS'lock_bits'
p511
S'0x0F'
p512
sS'file'
p513
S'ATmegaBOOT_168_atmega328_pro_8MHz.hex'
p514
sS'path'
p515
S'arduino:atmega'
p516
sS'unlock_bits'
p517
S'0x3F'
p518
ssS'build'
p519
(dp520
S'core'
p521
S'arduino'
p522
sS'mcu'
p523
S'atmega328p'
p524
sS'f_cpu'
p525
S'8000000L'
p526
sS'variant'
p527
S'eightanaloginputs'
p528
ssS'name'
p529
S'Arduino Fio'
p530
sS'upload'
p531
(dp532
S'speed'
p533
S'57600'
p534
sS'maximum_size'
p535
S'30720'
p536
sS'protocol'
p537
S'arduino'
p538
ssaa(lp539
S'bt328'
p540
a(dp541
S'bootloader'
p542
(dp543
S'extended_fuses'
p544
S'0x05'
p545
sS'high_fuses'
p546
S'0xd8'
p547
sS'low_fuses'
p548
S'0xff'
p549
sS'lock_bits'
p550
S'0x0F'
p551
sS'file'
p552
S'ATmegaBOOT_168_atmega328_bt.hex'
p553
sS'path'
p554
S'bt'
p555
sS'unlock_bits'
p556
S'0x3F'
p557
ssS'build'
p558
(dp559
S'core'
p560
S'arduino'
p561
sS'mcu'
p562
S'atmega328p'
p563
sS'f_cpu'
p564
S'16000000L'
p565
sS'variant'
p566
S'eightanaloginputs'
p567
ssS'name'
p568
S'Arduino BT w/ ATmega328'
p569
sS'upload'
p570
(dp571
S'speed'
p572
S'19200'
p573
sS'maximum_size'
p574
S'28672'
p575
sS'protocol'
p576
S'arduino'
p577
sS'disable_flushing'
p578
S'true'
p579
ssaa(lp580
S'bt'
p581
a(dp582
S'bootloader'
p583
(dp584
S'extended_fuses'
p585
S'0x00'
p586
sS'high_fuses'
p587
S'0xdd'
p588
sS'low_fuses'
p589
S'0xff'
p590
sS'lock_bits'
p591
S'0x0F'
p592
sS'file'
p593
S'ATmegaBOOT_168.hex'
p594
sS'path'
p595
S'bt'
p596
sS'unlock_bits'
p597
S'0x3F'
p598
ssS'build'
p599
(dp600
S'core'
p601
S'arduino'
p602
sS'mcu'
p603
S'atmega168'
p604
sS'f_cpu'
p605
S'16000000L'
p606
sS'variant'
p607
S'eightanaloginputs'
p608
ssS'name'
p609
S'Arduino BT w/ ATmega168'
p610
sS'upload'
p611
(dp612
S'speed'
p613
S'19200'
p614
sS'maximum_size'
p615
S'14336'
p616
sS'protocol'
p617
S'arduino'
p618
sS'disable_flushing'
p619
S'true'
p620
ssaa(lp621
S'lilypad328'
p622
a(dp623
S'bootloader'
p624
(dp625
S'extended_fuses'
p626
S'0x05'
p627
sS'high_fuses'
p628
S'0xDA'
p629
sS'low_fuses'
p630
S'0xFF'
p631
sS'lock_bits'
p632
S'0x0F'
p633
sS'file'
p634
S'ATmegaBOOT_168_atmega328_pro_8MHz.hex'
p635
sS'path'
p636
S'atmega'
p637
sS'unlock_bits'
p638
S'0x3F'
p639
ssS'build'
p640
(dp641
S'core'
p642
S'arduino'
p643
sS'mcu'
p644
S'atmega328p'
p645
sS'f_cpu'
p646
S'8000000L'
p647
sS'variant'
p648
S'standard'
p649
ssS'name'
p650
S'LilyPad Arduino w/ ATmega328'
p651
sS'upload'
p652
(dp653
S'speed'
p654
S'57600'
p655
sS'maximum_size'
p656
S'30720'
p657
sS'protocol'
p658
S'arduino'
p659
ssaa(lp660
S'lilypad'
p661
a(dp662
S'bootloader'
p663
(dp664
S'extended_fuses'
p665
S'0x00'
p666
sS'high_fuses'
p667
S'0xdd'
p668
sS'low_fuses'
p669
S'0xe2'
p670
sS'lock_bits'
p671
S'0x0F'
p672
sS'file'
p673
S'LilyPadBOOT_168.hex'
p674
sS'path'
p675
S'lilypad'
p676
sS'unlock_bits'
p677
S'0x3F'
p678
ssS'build'
p679
(dp680
S'core'
p681
S'arduino'
p682
sS'mcu'
p683
S'atmega168'
p684
sS'f_cpu'
p685
S'8000000L'
p686
sS'variant'
p687
S'standard'
p688
ssS'name'
p689
S'LilyPad Arduino w/ ATmega168'
p690
sS'upload'
p691
(dp692
S'speed'
p693
S'19200'
p694
sS'maximum_size'
p695
S'14336'
p696
sS'protocol'
p697
S'arduino'
p698
ssaa(lp699
S'pro5v328'
p700
a(dp701
S'bootloader'
p702
(dp703
S'extended_fuses'
p704
S'0x05'
p705
sS'high_fuses'
p706
S'0xDA'
p707
sS'low_fuses'
p708
S'0xFF'
p709
sS'lock_bits'
p710
S'0x0F'
p711
sS'file'
p712
S'ATmegaBOOT_168_atmega328.hex'
p713
sS'path'
p714
S'atmega'
p715
sS'unlock_bits'
p716
S'0x3F'
p717
ssS'build'
p718
(dp719
S'core'
p720
S'arduino'
p721
sS'mcu'
p722
S'atmega328p'
p723
sS'f_cpu'
p724
S'16000000L'
p725
sS'variant'
p726
S'standard'
p727
ssS'name'
p728
S'Arduino Pro or Pro Mini (5V, 16 MHz) w/ ATmega328'
p729
sS'upload'
p730
(dp731
S'speed'
p732
S'57600'
p733
sS'maximum_size'
p734
S'30720'
p735
sS'protocol'
p736
S'arduino'
p737
ssaa(lp738
S'pro5v'
p739
a(dp740
S'bootloader'
p741
(dp742
S'extended_fuses'
p743
S'0x00'
p744
sS'high_fuses'
p745
S'0xdd'
p746
sS'low_fuses'
p747
S'0xff'
p748
sS'lock_bits'
p749
S'0x0F'
p750
sS'file'
p751
S'ATmegaBOOT_168_diecimila.hex'
p752
sS'path'
p753
S'atmega'
p754
sS'unlock_bits'
p755
S'0x3F'
p756
ssS'build'
p757
(dp758
S'core'
p759
S'arduino'
p760
sS'mcu'
p761
S'atmega168'
p762
sS'f_cpu'
p763
S'16000000L'
p764
sS'variant'
p765
S'standard'
p766
ssS'name'
p767
S'Arduino Pro or Pro Mini (5V, 16 MHz) w/ ATmega168'
p768
sS'upload'
p769
(dp770
S'speed'
p771
S'19200'
p772
sS'maximum_size'
p773
S'14336'
p774
sS'protocol'
p775
S'arduino'
p776
ssaa(lp777
S'pro328'
p778
a(dp779
S'bootloader'
p780
(dp781
S'extended_fuses'
p782
S'0x05'
p783
sS'high_fuses'
p784
S'0xDA'
p785
sS'low_fuses'
p786
S'0xFF'
p787
sS'lock_bits'
p788
S'0x0F'
p789
sS'file'
p790
S'ATmegaBOOT_168_atmega328_pro_8MHz.hex'
p791
sS'path'
p792
S'atmega'
p793
sS'unlock_bits'
p794
S'0x3F'
p795
ssS'build'
p796
(dp797
S'core'
p798
S'arduino'
p799
sS'mcu'
p800
S'atmega328p'
p801
sS'f_cpu'
p802
S'8000000L'
p803
sS'variant'
p804
S'standard'
p805
ssS'name'
p806
S'Arduino Pro or Pro Mini (3.3V, 8 MHz) w/ ATmega328'
p807
sS'upload'
p808
(dp809
S'speed'
p810
S'57600'
p811
sS'maximum_size'
p812
S'30720'
p813
sS'protocol'
p814
S'arduino'
p815
ssaa(lp816
S'pro'
p817
a(dp818
S'bootloader'
p819
(dp820
S'extended_fuses'
p821
S'0x00'
p822
sS'high_fuses'
p823
S'0xdd'
p824
sS'low_fuses'
p825
S'0xc6'
p826
sS'lock_bits'
p827
S'0x0F'
p828
sS'file'
p829
S'ATmegaBOOT_168_pro_8MHz.hex'
p830
sS'path'
p831
S'atmega'
p832
sS'unlock_bits'
p833
S'0x3F'
p834
ssS'build'
p835
(dp836
S'core'
p837
S'arduino'
p838
sS'mcu'
p839
S'atmega168'
p840
sS'f_cpu'
p841
S'8000000L'
p842
sS'variant'
p843
S'standard'
p844
ssS'name'
p845
S'Arduino Pro or Pro Mini (3.3V, 8 MHz) w/ ATmega168'
p846
sS'upload'
p847
(dp848
S'speed'
p849
S'19200'
p850
sS'maximum_size'
p851
S'14336'
p852
sS'protocol'
p853
S'arduino'
p854
ssaa(lp855
S'atmega168'
p856
a(dp857
S'bootloader'
p858
(dp859
S'extended_fuses'
p860
S'0x00'
p861
sS'high_fuses'
p862
S'0xdd'
p863
sS'low_fuses'
p864
S'0xff'
p865
sS'lock_bits'
p866
S'0x0F'
p867
sS'file'
p868
S'ATmegaBOOT_168_ng.hex'
p869
sS'path'
p870
S'atmega'
p871
sS'unlock_bits'
p872
S'0x3F'
p873
ssS'build'
p874
(dp875
S'core'
p876
S'arduino'
p877
sS'mcu'
p878
S'atmega168'
p879
sS'f_cpu'
p880
S'16000000L'
p881
sS'variant'
p882
S'standard'
p883
ssS'name'
p884
S'Arduino NG or older w/ ATmega168'
p885
sS'upload'
p886
(dp887
S'speed'
p888
S'19200'
p889
sS'maximum_size'
p890
S'14336'
p891
sS'protocol'
p892
S'arduino'
p893
ssaa(lp894
S'atmega8'
p895
a(dp896
S'bootloader'
p897
(dp898
S'high_fuses'
p899
S'0xca'
p900
sS'low_fuses'
p901
S'0xdf'
p902
sS'lock_bits'
p903
S'0x0F'
p904
sS'file'
p905
S'ATmegaBOOT.hex'
p906
sS'path'
p907
S'atmega8'
p908
sS'unlock_bits'
p909
S'0x3F'
p910
ssS'build'
p911
(dp912
S'core'
p913
S'arduino'
p914
sS'mcu'
p915
S'atmega8'
p916
sS'f_cpu'
p917
S'16000000L'
p918
sS'variant'
p919
S'standard'
p920
ssS'name'
p921
S'Arduino NG or older w/ ATmega8'
p922
sS'upload'
p923
(dp924
S'speed'
p925
S'19200'
p926
sS'maximum_size'
p927
S'7168'
p928
sS'protocol'
p929
S'arduino'
p930
ssaatp931
Rp932
(dp933
S'default'
p934
S'uno'
p935
sbtp936
a(S'used_libs'
p937
(lp938
S'/usr/share/arduino/hardware/arduino/cores/arduino'
p939
atp940
a(S'make'
p941
S'/usr/bin/make'
p942
tp943
a(S'arduino_libraries_dir'
p944
S'/usr/share/arduino/libraries'
p945
tp946
a(S'cc'
p947
S'/usr/bin/avr-gcc'
p948
tp949
a(S'cflags'
p950
g2
(g3
g4
(lp951
tp952
Rp953
tp954
a(S'cxxflags'
p955
g2
(g3
g4
(lp956
S'-fno-exceptions'
p957
atp958
Rp959
tp960
a(S'arduino_variants_dir'
p961
S'/usr/share/arduino/hardware/arduino/variants'
p962
tp963
a(S'stty'
p964
S'/bin/stty'
p965
tp966
a(S'version.txt'
p967
S'/usr/share/arduino/lib/version.txt'
p968
tp969
a(S'arduino_core_dir'
p970
g939
tp971
a(S'boards.txt'
p972
S'/usr/share/arduino/hardware/arduino/boards.txt'
p973
tp974
a(S'avrdude.conf'
p975
S'/usr/share/arduino/hardware/tools/avrdude.conf'
p976
tp977
a(S'deps'
p978
g2
(g3
g4
(lp979
S'.build/leonardo/src/dependencies.d'
p980
aS'.build/leonardo/arduino/dependencies.d'
p981
atp982
Rp983
tp984
a.